(dp0
S'FLY'
p1
(lp2
(I210
I200
Ntp3
asS'GRASS'
p4
(lp5
(I560
I340
Ntp6
a(I350
I200
Ntp7
a(I0
I200
Ntp8
asS'DOOR'
p9
(lp10
(I350
I340
I1
tp11
asS'GRASSMID'
p12
(lp13
(I840
I410
Ntp14
a(I140
I410
Ntp15
a(I490
I410
Ntp16
a(I210
I340
Ntp17
a(I210
I410
Ntp18
a(I70
I410
Ntp19
a(I350
I410
Ntp20
a(I280
I410
Ntp21
a(I420
I410
Ntp22
a(I560
I410
Ntp23
asS'SLIME'
p24
(lp25
(I420
I340
Ntp26
asS'FROG'
p27
(lp28
(I420
I270
Ntp29
asS'PLAYER'
p30
(lp31
(I0
I60
Ntp32
asS'SWITCH'
p33
(lp34
(I140
I340
I1
tp35
asS'GRASSLEFT'
p36
(lp37
(I0
I410
Ntp38
asS'COIN'
p39
(lp40
(I840
I270
Ntp41
a(I840
I340
Ntp42
a(I350
I60
Ntp43
a(I350
I130
Ntp44
asS'LEVELWIDTH'
p45
I900
s.