(dp0
S'FLY'
p1
(lp2
(I910
I130
Ntp3
asS'GRASSRIGHT'
p4
(lp5
(I1050
I410
Ntp6
asS'GRASS'
p7
(lp8
(I0
I340
Ntp9
a(I700
I130
Ntp10
a(I1050
I130
Ntp11
a(I210
I200
Ntp12
asS'DOOR'
p13
(lp14
(I1050
I340
I1
tp15
asS'GRASSMID'
p16
(lp17
(I630
I200
Ntp18
a(I980
I340
Ntp19
a(I350
I200
Ntp20
a(I770
I410
Ntp21
a(I840
I410
Ntp22
a(I280
I410
Ntp23
a(I140
I410
Ntp24
a(I700
I410
Ntp25
a(I910
I410
Ntp26
a(I210
I410
Ntp27
a(I70
I410
Ntp28
asS'SLIME'
p29
(lp30
(I210
I340
Ntp31
asS'FROG'
p32
(lp33
(I910
I340
Ntp34
asS'WATER'
p35
(lp36
(I420
I200
Ntp37
a(I420
I270
Ntp38
a(I420
I270
Ntp39
a(I490
I340
Ntp40
a(I420
I340
Ntp41
a(I560
I270
Ntp42
a(I560
I340
Ntp43
a(I560
I200
Ntp44
a(I490
I200
Ntp45
a(I490
I270
Ntp46
asS'PLAYER'
p47
(lp48
(I210
I60
Ntp49
asS'SWITCH'
p50
(lp51
(I350
I130
I1
tp52
asS'GRASSLEFT'
p53
(lp54
(I0
I410
Ntp55
asS'COIN'
p56
(lp57
(I700
I60
Ntp58
a(I700
I-10
Ntp59
asS'LEVELWIDTH'
p60
I1200
sS'GRASSCENTER'
p61
(lp62
(I350
I270
Ntp63
a(I420
I410
Ntp64
a(I560
I410
Ntp65
a(I490
I410
Ntp66
a(I980
I410
Ntp67
a(I350
I340
Ntp68
a(I630
I410
Ntp69
a(I630
I340
Ntp70
a(I350
I410
Ntp71
a(I630
I270
Ntp72
as.