(dp0
S'STONE'
p1
(lp2
(I140
I130
Ntp3
asS'GRASS'
p4
(lp5
(I700
I340
Ntp6
a(I630
I410
Ntp7
a(I560
I410
Ntp8
a(I490
I410
Ntp9
a(I70
I410
Ntp10
a(I350
I410
Ntp11
a(I140
I410
Ntp12
a(I210
I410
Ntp13
a(I280
I410
Ntp14
a(I420
I410
Ntp15
a(I0
I410
Ntp16
a(I280
I340
Ntp17
a(I280
I270
Ntp18
a(I700
I410
Ntp19
asS'DOOR'
p20
(lp21
(I210
I340
I1
tp22
asS'SLIME'
p23
(lp24
(I420
I340
Ntp25
a(I560
I340
Ntp26
asS'PLAYER'
p27
(lp28
(I140
I-10
Ntp29
asS'SWITCH'
p30
(lp31
(I0
I340
I1
tp32
asS'COIN'
p33
(lp34
(I280
I200
Ntp35
a(I700
I270
Ntp36
asS'LEVELWIDTH'
p37
I800
s.