(dp0
S'STONE'
p1
(lp2
(I280
I130
tp3
a(I210
I130
tp4
asS'COIN'
p5
(lp6
(I420
I130
tp7
a(I420
I200
tp8
asS'SLIME'
p9
(lp10
(I140
I340
tp11
a(I280
I340
tp12
asS'PLAYER'
p13
(lp14
(I280
I-10
tp15
asS'SWITCH'
p16
(lp17
(I560
I340
tp18
asS'GRASS'
p19
(lp20
(I0
I410
tp21
a(I280
I410
tp22
a(I70
I410
tp23
a(I140
I410
tp24
a(I420
I340
tp25
a(I0
I340
tp26
a(I350
I410
tp27
a(I420
I410
tp28
a(I490
I410
tp29
a(I560
I410
tp30
a(I700
I410
tp31
a(I630
I410
tp32
a(I210
I410
tp33
a(I420
I270
tp34
as.