(dp0
S'FLY'
p1
(lp2
(I210
I270
Ntp3
asS'STONE'
p4
(lp5
(I140
I130
Ntp6
asS'DOOR'
p7
(lp8
(I210
I340
I1
tp9
asS'SLIME'
p10
(lp11
(I560
I340
Ntp12
asS'PLAYER'
p13
(lp14
(I140
I-10
Ntp15
asS'SWITCH'
p16
(lp17
(I0
I340
I1
tp18
asS'GRASS'
p19
(lp20
(I350
I410
Ntp21
a(I700
I410
Ntp22
a(I0
I270
Ntp23
a(I700
I340
Ntp24
a(I140
I410
Ntp25
a(I420
I410
Ntp26
a(I350
I340
Ntp27
a(I70
I410
Ntp28
a(I0
I410
Ntp29
a(I210
I410
Ntp30
a(I280
I410
Ntp31
a(I490
I410
Ntp32
a(I630
I410
Ntp33
a(I560
I410
Ntp34
a(I350
I270
Ntp35
asS'LEVELWIDTH'
p36
I800
s.