(dp0
S'FLY'
p1
(lp2
(I700
I200
Ntp3
asS'STONE'
p4
(lp5
(I140
I130
Ntp6
asS'COIN'
p7
(lp8
(I280
I200
Ntp9
a(I700
I270
Ntp10
asS'DOOR'
p11
(lp12
(I210
I340
I1
tp13
asS'SLIME'
p14
(lp15
(I420
I340
Ntp16
a(I560
I340
Ntp17
asS'PLAYER'
p18
(lp19
(I140
I-10
Ntp20
asS'SWITCH'
p21
(lp22
(I0
I340
I1
tp23
asS'GRASS'
p24
(lp25
(I350
I410
Ntp26
a(I140
I410
Ntp27
a(I210
I410
Ntp28
a(I280
I410
Ntp29
a(I420
I410
Ntp30
a(I0
I410
Ntp31
a(I280
I340
Ntp32
a(I280
I270
Ntp33
a(I560
I410
Ntp34
a(I700
I340
Ntp35
a(I630
I410
Ntp36
a(I700
I410
Ntp37
a(I490
I410
Ntp38
a(I70
I410
Ntp39
asS'LEVELWIDTH'
p40
I800
s.