(dp0
S'FLY'
p1
(lp2
(I210
I270
Ntp3
asS'STONE'
p4
(lp5
(I140
I130
Ntp6
asS'DOOR'
p7
(lp8
(I280
I340
I4
tp9
asS'GRASSMID'
p10
(lp11
(I630
I410
Ntp12
a(I350
I270
Ntp13
a(I280
I410
Ntp14
a(I490
I410
Ntp15
a(I70
I410
Ntp16
a(I420
I410
Ntp17
a(I210
I410
Ntp18
a(I560
I410
Ntp19
a(I140
I410
Ntp20
a(I350
I410
Ntp21
asS'GRASSRIGHT'
p22
(lp23
(I700
I410
Ntp24
asS'SLIME'
p25
(lp26
(I560
I340
Ntp27
asS'PLAYER'
p28
(lp29
(I140
I-10
Ntp30
asS'SWITCH'
p31
(lp32
(I140
I340
I4
tp33
asS'GRASS'
p34
(lp35
(I0
I270
Ntp36
a(I700
I340
Ntp37
a(I0
I410
Ntp38
asS'LEVELWIDTH'
p39
I800
sS'GRASSCENTER'
p40
(lp41
(I350
I340
Ntp42
as.